; Function Attrs: mustprogress nounwind uwtable
define hidden noundef i32 @_ZN12JvmtiEnvBase15get_frame_countEP10JavaThreadPi(ptr nocapture nonnull readnone align 8 %0, ptr noundef %1, ptr nocapture noundef writeonly %2) local_unnamed_addr #0 align 2 {
  %4 = alloca %class.RegisterMap, align 8
  %5 = tail call align 8 ptr @llvm.threadlocal.address.p0(ptr align 8 @_ZN6Thread12_thr_currentE)
  %6 = load ptr, ptr %5, align 8
  %7 = getelementptr inbounds i8, ptr %1, i64 928
  %8 = load volatile ptr, ptr %7, align 8
  %.not = icmp eq ptr %8, null
  br i1 %.not, label %9, label %10

9:                                                ; preds = %3
  store i32 0, ptr %2, align 4
  br label %_ZN12ResourceMarkD2Ev.exit

10:                                               ; preds = %3
  %11 = getelementptr inbounds i8, ptr %6, i64 800
  %12 = load ptr, ptr %11, align 8
  %13 = getelementptr inbounds i8, ptr %12, i64 24
  %14 = load ptr, ptr %13, align 8
  %15 = getelementptr inbounds i8, ptr %12, i64 32
  %16 = load ptr, ptr %15, align 8
  %17 = getelementptr inbounds i8, ptr %12, i64 40
  %18 = load ptr, ptr %17, align 8
  %19 = getelementptr inbounds i8, ptr %12, i64 8
  %20 = load i64, ptr %19, align 8
  call void @_ZN11RegisterMapC1EP10JavaThreadNS_9UpdateMapENS_13ProcessFramesENS_16WalkContinuationE(ptr noundef nonnull align 8 dereferenceable(4983) %4, ptr noundef nonnull %1, i32 noundef 1, i32 noundef 1, i32 noundef 0) #18
  %21 = call noundef ptr @_ZN12JvmtiEnvBase28get_cthread_last_java_vframeEP10JavaThreadP11RegisterMap(ptr noundef nonnull %1, ptr noundef nonnull %4)
  %.not4.i = icmp eq ptr %21, null
  br i1 %.not4.i, label %_ZN12JvmtiEnvBase15get_frame_countEP10javaVFrame.exit, label %.lr.ph.i

.lr.ph.i:                                         ; preds = %10, %.lr.ph.i
  %.06.i = phi i32 [ %23, %.lr.ph.i ], [ 0, %10 ]
  %.035.i = phi ptr [ %22, %.lr.ph.i ], [ %21, %10 ]
  %22 = call noundef ptr @_ZNK6vframe11java_senderEv(ptr noundef nonnull align 8 dereferenceable(5064) %.035.i) #18
  %23 = add nuw nsw i32 %.06.i, 1
  %.not.i = icmp eq ptr %22, null
  br i1 %.not.i, label %_ZN12JvmtiEnvBase15get_frame_countEP10javaVFrame.exit, label %.lr.ph.i, !llvm.loop !53

_ZN12JvmtiEnvBase15get_frame_countEP10javaVFrame.exit: ; preds = %.lr.ph.i, %10
  %.0.lcssa.i = phi i32 [ 0, %10 ], [ %23, %.lr.ph.i ]
  store i32 %.0.lcssa.i, ptr %2, align 4
  %24 = load ptr, ptr %14, align 8
  %.not.i.i.i.i = icmp eq ptr %24, null
  br i1 %.not.i.i.i.i, label %26, label %25

25:                                               ; preds = %_ZN12JvmtiEnvBase15get_frame_countEP10javaVFrame.exit
  call void @_ZN5Arena17set_size_in_bytesEm(ptr noundef nonnull align 8 dereferenceable(48) %12, i64 noundef %20) #18
  call void @_ZN5Chunk9next_chopEPS_(ptr noundef nonnull %14) #18
  br label %26

26:                                               ; preds = %25, %_ZN12JvmtiEnvBase15get_frame_countEP10javaVFrame.exit
  %27 = load ptr, ptr %15, align 8
  %.not8.i.i.i.i = icmp eq ptr %27, %16
  br i1 %.not8.i.i.i.i, label %_ZN12ResourceMarkD2Ev.exit, label %28

28:                                               ; preds = %26
  store ptr %14, ptr %13, align 8
  store ptr %16, ptr %15, align 8
  store ptr %18, ptr %17, align 8
  br label %_ZN12ResourceMarkD2Ev.exit

_ZN12ResourceMarkD2Ev.exit:                       ; preds = %28, %26, %9
  ret i32 0
}